; ModuleID = '25/1033.c'
source_filename = "25/1033.c"
target datalayout = "e-m:e-p270:32:32-p271:32:32-p272:64:64-i64:64-f80:128-n8:16:32:64-S128"
target triple = "x86_64-pc-linux-gnu"

@.str = private unnamed_addr constant [3 x i8] c"%d\00", align 1

; Function Attrs: noinline nounwind uwtable
define dso_local void @cf(i8* %0) #0 {
  %2 = alloca i8*, align 8
  %3 = alloca i32, align 4
  %4 = alloca i32, align 4
  store i8* %0, i8** %2, align 8
  %5 = load i8*, i8** %2, align 8
  %6 = call i64 @strlen(i8* %5) #4
  %7 = trunc i64 %6 to i32
  store i32 %7, i32* %3, align 4
  store i32 0, i32* %4, align 4
  br label %8

8:                                                ; preds = %27, %1
  %9 = load i32, i32* %4, align 4
  %10 = load i32, i32* %3, align 4
  %11 = icmp slt i32 %9, %10
  br i1 %11, label %12, label %30

12:                                               ; preds = %8
  %13 = load i8*, i8** %2, align 8
  %14 = load i32, i32* %4, align 4
  %15 = sext i32 %14 to i64
  %16 = getelementptr inbounds i8, i8* %13, i64 %15
  %17 = load i8, i8* %16, align 1
  %18 = sext i8 %17 to i32
  %19 = sub nsw i32 %18, 48
  %20 = mul nsw i32 %19, 2
  %21 = add nsw i32 %20, 48
  %22 = trunc i32 %21 to i8
  %23 = load i8*, i8** %2, align 8
  %24 = load i32, i32* %4, align 4
  %25 = sext i32 %24 to i64
  %26 = getelementptr inbounds i8, i8* %23, i64 %25
  store i8 %22, i8* %26, align 1
  br label %27

27:                                               ; preds = %12
  %28 = load i32, i32* %4, align 4
  %29 = add nsw i32 %28, 1
  store i32 %29, i32* %4, align 4
  br label %8

30:                                               ; preds = %8
  store i32 0, i32* %4, align 4
  br label %31

31:                                               ; preds = %63, %30
  %32 = load i32, i32* %4, align 4
  %33 = load i32, i32* %3, align 4
  %34 = sub nsw i32 %33, 1
  %35 = icmp slt i32 %32, %34
  br i1 %35, label %36, label %66

36:                                               ; preds = %31
  %37 = load i8*, i8** %2, align 8
  %38 = load i32, i32* %4, align 4
  %39 = sext i32 %38 to i64
  %40 = getelementptr inbounds i8, i8* %37, i64 %39
  %41 = load i8, i8* %40, align 1
  %42 = sext i8 %41 to i32
  %43 = icmp sgt i32 %42, 57
  br i1 %43, label %44, label %62

44:                                               ; preds = %36
  %45 = load i8*, i8** %2, align 8
  %46 = load i32, i32* %4, align 4
  %47 = sext i32 %46 to i64
  %48 = getelementptr inbounds i8, i8* %45, i64 %47
  %49 = load i8, i8* %48, align 1
  %50 = sext i8 %49 to i32
  %51 = sub nsw i32 %50, 10
  %52 = trunc i32 %51 to i8
  store i8 %52, i8* %48, align 1
  %53 = load i8*, i8** %2, align 8
  %54 = load i32, i32* %4, align 4
  %55 = add nsw i32 %54, 1
  %56 = sext i32 %55 to i64
  %57 = getelementptr inbounds i8, i8* %53, i64 %56
  %58 = load i8, i8* %57, align 1
  %59 = sext i8 %58 to i32
  %60 = add nsw i32 %59, 1
  %61 = trunc i32 %60 to i8
  store i8 %61, i8* %57, align 1
  br label %62

62:                                               ; preds = %44, %36
  br label %63

63:                                               ; preds = %62
  %64 = load i32, i32* %4, align 4
  %65 = add nsw i32 %64, 1
  store i32 %65, i32* %4, align 4
  br label %31

66:                                               ; preds = %31
  %67 = load i8*, i8** %2, align 8
  %68 = load i32, i32* %3, align 4
  %69 = sub nsw i32 %68, 1
  %70 = sext i32 %69 to i64
  %71 = getelementptr inbounds i8, i8* %67, i64 %70
  %72 = load i8, i8* %71, align 1
  %73 = sext i8 %72 to i32
  %74 = icmp sgt i32 %73, 57
  br i1 %74, label %75, label %89

75:                                               ; preds = %66
  %76 = load i8*, i8** %2, align 8
  %77 = load i32, i32* %3, align 4
  %78 = sub nsw i32 %77, 1
  %79 = sext i32 %78 to i64
  %80 = getelementptr inbounds i8, i8* %76, i64 %79
  %81 = load i8, i8* %80, align 1
  %82 = sext i8 %81 to i32
  %83 = sub nsw i32 %82, 10
  %84 = trunc i32 %83 to i8
  store i8 %84, i8* %80, align 1
  %85 = load i8*, i8** %2, align 8
  %86 = load i32, i32* %3, align 4
  %87 = sext i32 %86 to i64
  %88 = getelementptr inbounds i8, i8* %85, i64 %87
  store i8 49, i8* %88, align 1
  br label %89

89:                                               ; preds = %75, %66
  ret void
}

; Function Attrs: nounwind readonly
declare dso_local i64 @strlen(i8*) #1

; Function Attrs: noinline nounwind uwtable
define dso_local void @strre(i8* %0) #0 {
  %2 = alloca i8*, align 8
  %3 = alloca i32, align 4
  %4 = alloca i32, align 4
  %5 = alloca i32, align 4
  %6 = alloca i8, align 1
  store i8* %0, i8** %2, align 8
  %7 = load i8*, i8** %2, align 8
  %8 = call i64 @strlen(i8* %7) #4
  %9 = trunc i64 %8 to i32
  store i32 %9, i32* %5, align 4
  store i32 0, i32* %4, align 4
  %10 = load i32, i32* %5, align 4
  %11 = sub nsw i32 %10, 1
  store i32 %11, i32* %3, align 4
  br label %12

12:                                               ; preds = %37, %1
  %13 = load i32, i32* %4, align 4
  %14 = load i32, i32* %5, align 4
  %15 = sdiv i32 %14, 2
  %16 = icmp slt i32 %13, %15
  br i1 %16, label %17, label %42

17:                                               ; preds = %12
  %18 = load i8*, i8** %2, align 8
  %19 = load i32, i32* %4, align 4
  %20 = sext i32 %19 to i64
  %21 = getelementptr inbounds i8, i8* %18, i64 %20
  %22 = load i8, i8* %21, align 1
  store i8 %22, i8* %6, align 1
  %23 = load i8*, i8** %2, align 8
  %24 = load i32, i32* %3, align 4
  %25 = sext i32 %24 to i64
  %26 = getelementptr inbounds i8, i8* %23, i64 %25
  %27 = load i8, i8* %26, align 1
  %28 = load i8*, i8** %2, align 8
  %29 = load i32, i32* %4, align 4
  %30 = sext i32 %29 to i64
  %31 = getelementptr inbounds i8, i8* %28, i64 %30
  store i8 %27, i8* %31, align 1
  %32 = load i8, i8* %6, align 1
  %33 = load i8*, i8** %2, align 8
  %34 = load i32, i32* %3, align 4
  %35 = sext i32 %34 to i64
  %36 = getelementptr inbounds i8, i8* %33, i64 %35
  store i8 %32, i8* %36, align 1
  br label %37

37:                                               ; preds = %17
  %38 = load i32, i32* %4, align 4
  %39 = add nsw i32 %38, 1
  store i32 %39, i32* %4, align 4
  %40 = load i32, i32* %3, align 4
  %41 = add nsw i32 %40, -1
  store i32 %41, i32* %3, align 4
  br label %12

42:                                               ; preds = %12
  ret void
}

; Function Attrs: noinline nounwind uwtable
define dso_local void @main() #0 {
  %1 = alloca i32, align 4
  %2 = alloca [100 x i8], align 16
  %3 = bitcast [100 x i8]* %2 to i8*
  call void @llvm.memset.p0i8.i64(i8* align 16 %3, i8 0, i64 100, i1 false)
  %4 = bitcast i8* %3 to <{ i8, [99 x i8] }>*
  %5 = getelementptr inbounds <{ i8, [99 x i8] }>, <{ i8, [99 x i8] }>* %4, i32 0, i32 0
  store i8 49, i8* %5, align 16
  %6 = call i32 (i8*, ...) @__isoc99_scanf(i8* getelementptr inbounds ([3 x i8], [3 x i8]* @.str, i64 0, i64 0), i32* %1)
  br label %7

7:                                                ; preds = %11, %0
  %8 = load i32, i32* %1, align 4
  %9 = add nsw i32 %8, -1
  store i32 %9, i32* %1, align 4
  %10 = icmp ne i32 %8, 0
  br i1 %10, label %11, label %13

11:                                               ; preds = %7
  %12 = getelementptr inbounds [100 x i8], [100 x i8]* %2, i64 0, i64 0
  call void @cf(i8* %12)
  br label %7

13:                                               ; preds = %7
  %14 = getelementptr inbounds [100 x i8], [100 x i8]* %2, i64 0, i64 0
  call void @strre(i8* %14)
  %15 = getelementptr inbounds [100 x i8], [100 x i8]* %2, i64 0, i64 0
  %16 = call i32 @puts(i8* %15)
  ret void
}

; Function Attrs: argmemonly nounwind willreturn
declare void @llvm.memset.p0i8.i64(i8* nocapture writeonly, i8, i64, i1 immarg) #2

declare dso_local i32 @__isoc99_scanf(i8*, ...) #3

declare dso_local i32 @puts(i8*) #3


!llvm.module.flags = !{!0}
!llvm.ident = !{!1}

!0 = !{i32 1, !"wchar_size", i32 4}
!1 = !{!"clang version 10.0.0-4ubuntu1 "}
